; Function Attrs: mustprogress uwtable
define hidden noundef nonnull align 8 dereferenceable(48) ptr @_ZN19OpenColorIO_v2_5dev11Lut3DOpData10Lut3DArrayaSERKNS_6ArrayTIfEE(ptr noundef nonnull returned align 8 dereferenceable(48) %0, ptr noundef nonnull align 8 dereferenceable(48) %1) local_unnamed_addr #3 align 2 {
  %.not = icmp eq ptr %0, %1
  br i1 %.not, label %9, label %3

3:                                                ; preds = %2
  %4 = getelementptr inbounds nuw i8, ptr %0, i64 8
  %5 = getelementptr inbounds nuw i8, ptr %1, i64 8
  tail call void @llvm.memcpy.p0.p0.i64(ptr noundef nonnull align 8 dereferenceable(16) %4, ptr noundef nonnull align 8 dereferenceable(16) %5, i64 16, i1 false)
  %6 = getelementptr inbounds nuw i8, ptr %0, i64 24
  %7 = getelementptr inbounds nuw i8, ptr %1, i64 24
  %8 = tail call noundef nonnull align 8 dereferenceable(24) ptr @_ZNSt6vectorIfSaIfEEaSERKS1_(ptr noundef nonnull align 8 dereferenceable(24) %6, ptr noundef nonnull align 8 dereferenceable(24) %7)
  br label %9

9:                                                ; preds = %3, %2
  ret ptr %0
}